; ModuleID = '30/2038.c'
source_filename = "30/2038.c"
target datalayout = "e-m:e-p270:32:32-p271:32:32-p272:64:64-i64:64-f80:128-n8:16:32:64-S128"
target triple = "x86_64-pc-linux-gnu"

@.str = private unnamed_addr constant [3 x i8] c"%d\00", align 1

; Function Attrs: noinline nounwind uwtable
define dso_local i32 @main() #0 {
  %1 = alloca i32, align 4
  %2 = alloca i32, align 4
  %3 = alloca i32, align 4
  %4 = alloca i32, align 4
  %5 = alloca i32, align 4
  %6 = alloca i32, align 4
  %7 = alloca i32, align 4
  store i32 0, i32* %1, align 4
  store i32 0, i32* %4, align 4
  store i32 0, i32* %5, align 4
  %8 = call i32 (i8*, ...) @__isoc99_scanf(i8* getelementptr inbounds ([3 x i8], [3 x i8]* @.str, i64 0, i64 0), i32* %2)
  store i32 0, i32* %3, align 4
  br label %9

9:                                                ; preds = %34, %0
  %10 = load i32, i32* %3, align 4
  %11 = load i32, i32* %2, align 4
  %12 = add nsw i32 %11, 1
  %13 = icmp slt i32 %10, %12
  br i1 %13, label %14, label %37

14:                                               ; preds = %9
  %15 = load i32, i32* %3, align 4
  %16 = srem i32 %15, 7
  %17 = icmp eq i32 %16, 0
  br i1 %17, label %27, label %18

18:                                               ; preds = %14
  %19 = load i32, i32* %3, align 4
  %20 = sub nsw i32 %19, 7
  %21 = srem i32 %20, 10
  %22 = icmp eq i32 %21, 0
  br i1 %22, label %27, label %23

23:                                               ; preds = %18
  %24 = load i32, i32* %3, align 4
  %25 = sdiv i32 %24, 10
  %26 = icmp eq i32 %25, 7
  br i1 %26, label %27, label %33

27:                                               ; preds = %23, %18, %14
  %28 = load i32, i32* %3, align 4
  %29 = load i32, i32* %3, align 4
  %30 = mul nsw i32 %28, %29
  %31 = load i32, i32* %4, align 4
  %32 = add nsw i32 %31, %30
  store i32 %32, i32* %4, align 4
  br label %33

33:                                               ; preds = %27, %23
  br label %34

34:                                               ; preds = %33
  %35 = load i32, i32* %3, align 4
  %36 = add nsw i32 %35, 1
  store i32 %36, i32* %3, align 4
  br label %9

37:                                               ; preds = %9
  store i32 0, i32* %6, align 4
  br label %38

38:                                               ; preds = %49, %37
  %39 = load i32, i32* %6, align 4
  %40 = load i32, i32* %2, align 4
  %41 = add nsw i32 %40, 1
  %42 = icmp slt i32 %39, %41
  br i1 %42, label %43, label %52

43:                                               ; preds = %38
  %44 = load i32, i32* %6, align 4
  %45 = load i32, i32* %6, align 4
  %46 = mul nsw i32 %44, %45
  %47 = load i32, i32* %5, align 4
  %48 = add nsw i32 %47, %46
  store i32 %48, i32* %5, align 4
  br label %49

49:                                               ; preds = %43
  %50 = load i32, i32* %6, align 4
  %51 = add nsw i32 %50, 1
  store i32 %51, i32* %6, align 4
  br label %38

52:                                               ; preds = %38
  %53 = load i32, i32* %5, align 4
  %54 = load i32, i32* %4, align 4
  %55 = sub nsw i32 %53, %54
  store i32 %55, i32* %7, align 4
  %56 = load i32, i32* %7, align 4
  %57 = call i32 (i8*, ...) @printf(i8* getelementptr inbounds ([3 x i8], [3 x i8]* @.str, i64 0, i64 0), i32 %56)
  ret i32 0
}

declare dso_local i32 @__isoc99_scanf(i8*, ...) #1

declare dso_local i32 @printf(i8*, ...) #1


!llvm.module.flags = !{!0}
!llvm.ident = !{!1}

!0 = !{i32 1, !"wchar_size", i32 4}
!1 = !{!"clang version 10.0.0-4ubuntu1 "}
